(lp0
ccopy_reg
_reconstructor
p1
(cperguntas
perguntaReg
p2
c__builtin__
tuple
p3
(I1
S'1'
p4
S'Capital da Fran\xe7a'
p5
S'Paris'
p6
S'Lsiboa'
p7
S'Rio Janeiro'
p8
S'1'
p9
tp10
tp11
Rp12
ccollections
OrderedDict
p13
((lp14
(lp15
S'id'
p16
aI1
aa(lp17
S'categoria'
p18
ag4
aa(lp19
S'enunciado'
p20
ag5
aa(lp21
S'resposta1'
p22
ag6
aa(lp23
S'resposta2'
p24
ag7
aa(lp25
S'resposta3'
p26
ag8
aa(lp27
S'certa'
p28
ag9
aatp29
Rp30
ba.